target datalayout = "e-m:e-p270:32:32-p271:32:32-p272:64:64-i64:64-i128:128-f80:128-n8:16:32:64-S128"
target triple = "x86_64-pc-linux-gnu"

%struct.archive_entry = type { ptr, ptr, i32, %struct.aest, i32, %struct.archive_mstring, i64, i64, %struct.archive_mstring, %struct.archive_mstring, %struct.archive_mstring, %struct.archive_mstring, %struct.archive_mstring, i8, ptr, i64, %struct.ae_digest, %struct.archive_acl, ptr, ptr, ptr, ptr, ptr, [12 x i8], i32 }
%struct.aest = type { i64, i32, i64, i32, i64, i32, i64, i32, i64, i64, i32, i64, i64, i32, i64, i64, i64, i32, i64, i64, i64 }
%struct.archive_mstring = type { %struct.archive_string, %struct.archive_string, %struct.archive_wstring, %struct.archive_string, i32 }
%struct.archive_wstring = type { ptr, i64, i64 }
%struct.archive_string = type { ptr, i64, i64 }
%struct.ae_digest = type { [16 x i8], [20 x i8], [20 x i8], [32 x i8], [48 x i8], [64 x i8] }
%struct.archive_acl = type { i32, ptr, ptr, i32, ptr, ptr, i32 }

; Function Attrs: nounwind uwtable
define dso_local i32 @archive_entry_set_digest(ptr noundef %0, i32 noundef %1, ptr noundef %2) #0 {
  %4 = alloca i32, align 4
  %5 = alloca ptr, align 8
  %6 = alloca i32, align 4
  %7 = alloca ptr, align 8
  store ptr %0, ptr %5, align 8, !tbaa !4
  store i32 %1, ptr %6, align 4, !tbaa !32
  store ptr %2, ptr %7, align 8, !tbaa !67
  %8 = load i32, ptr %6, align 4, !tbaa !32
  switch i32 %8, label %45 [
    i32 1, label %9
    i32 2, label %15
    i32 3, label %21
    i32 4, label %27
    i32 5, label %33
    i32 6, label %39
  ]

9:                                                ; preds = %3
  %10 = load ptr, ptr %5, align 8, !tbaa !4
  %11 = getelementptr inbounds nuw %struct.archive_entry, ptr %10, i32 0, i32 16
  %12 = getelementptr inbounds nuw %struct.ae_digest, ptr %11, i32 0, i32 0
  %13 = getelementptr inbounds [16 x i8], ptr %12, i64 0, i64 0
  %14 = load ptr, ptr %7, align 8, !tbaa !67
  call void @llvm.memcpy.p0.p0.i64(ptr align 8 %13, ptr align 1 %14, i64 16, i1 false)
  br label %46

15:                                               ; preds = %3
  %16 = load ptr, ptr %5, align 8, !tbaa !4
  %17 = getelementptr inbounds nuw %struct.archive_entry, ptr %16, i32 0, i32 16
  %18 = getelementptr inbounds nuw %struct.ae_digest, ptr %17, i32 0, i32 1
  %19 = getelementptr inbounds [20 x i8], ptr %18, i64 0, i64 0
  %20 = load ptr, ptr %7, align 8, !tbaa !67
  call void @llvm.memcpy.p0.p0.i64(ptr align 8 %19, ptr align 1 %20, i64 20, i1 false)
  br label %46

21:                                               ; preds = %3
  %22 = load ptr, ptr %5, align 8, !tbaa !4
  %23 = getelementptr inbounds nuw %struct.archive_entry, ptr %22, i32 0, i32 16
  %24 = getelementptr inbounds nuw %struct.ae_digest, ptr %23, i32 0, i32 2
  %25 = getelementptr inbounds [20 x i8], ptr %24, i64 0, i64 0
  %26 = load ptr, ptr %7, align 8, !tbaa !67
  call void @llvm.memcpy.p0.p0.i64(ptr align 4 %25, ptr align 1 %26, i64 20, i1 false)
  br label %46

27:                                               ; preds = %3
  %28 = load ptr, ptr %5, align 8, !tbaa !4
  %29 = getelementptr inbounds nuw %struct.archive_entry, ptr %28, i32 0, i32 16
  %30 = getelementptr inbounds nuw %struct.ae_digest, ptr %29, i32 0, i32 3
  %31 = getelementptr inbounds [32 x i8], ptr %30, i64 0, i64 0
  %32 = load ptr, ptr %7, align 8, !tbaa !67
  call void @llvm.memcpy.p0.p0.i64(ptr align 8 %31, ptr align 1 %32, i64 32, i1 false)
  br label %46

33:                                               ; preds = %3
  %34 = load ptr, ptr %5, align 8, !tbaa !4
  %35 = getelementptr inbounds nuw %struct.archive_entry, ptr %34, i32 0, i32 16
  %36 = getelementptr inbounds nuw %struct.ae_digest, ptr %35, i32 0, i32 4
  %37 = getelementptr inbounds [48 x i8], ptr %36, i64 0, i64 0
  %38 = load ptr, ptr %7, align 8, !tbaa !67
  call void @llvm.memcpy.p0.p0.i64(ptr align 8 %37, ptr align 1 %38, i64 48, i1 false)
  br label %46

39:                                               ; preds = %3
  %40 = load ptr, ptr %5, align 8, !tbaa !4
  %41 = getelementptr inbounds nuw %struct.archive_entry, ptr %40, i32 0, i32 16
  %42 = getelementptr inbounds nuw %struct.ae_digest, ptr %41, i32 0, i32 5
  %43 = getelementptr inbounds [64 x i8], ptr %42, i64 0, i64 0
  %44 = load ptr, ptr %7, align 8, !tbaa !67
  call void @llvm.memcpy.p0.p0.i64(ptr align 8 %43, ptr align 1 %44, i64 64, i1 false)
  br label %46

45:                                               ; preds = %3
  store i32 -20, ptr %4, align 4
  br label %47

46:                                               ; preds = %39, %33, %27, %21, %15, %9
  store i32 0, ptr %4, align 4
  br label %47

47:                                               ; preds = %46, %45
  %48 = load i32, ptr %4, align 4
  ret i32 %48
}