; Function Attrs: mustprogress nofree norecurse nosync nounwind willreturn memory(argmem: readwrite) uwtable
define dso_local range(i32 -20, 1) i32 @archive_entry_set_digest(ptr noundef writeonly captures(none) %0, i32 noundef %1, ptr noundef readonly captures(none) %2) local_unnamed_addr #7 {
  switch i32 %1, label %16 [
    i32 1, label %4
    i32 2, label %6
    i32 3, label %8
    i32 4, label %10
    i32 5, label %12
    i32 6, label %14
  ]

4:                                                ; preds = %3
  %5 = getelementptr inbounds nuw i8, ptr %0, i64 864
  tail call void @llvm.memcpy.p0.p0.i64(ptr noundef nonnull align 8 dereferenceable(16) %5, ptr noundef nonnull align 1 dereferenceable(16) %2, i64 16, i1 false)
  br label %16

6:                                                ; preds = %3
  %7 = getelementptr inbounds nuw i8, ptr %0, i64 880
  tail call void @llvm.memcpy.p0.p0.i64(ptr noundef nonnull align 8 dereferenceable(20) %7, ptr noundef nonnull align 1 dereferenceable(20) %2, i64 20, i1 false)
  br label %16

8:                                                ; preds = %3
  %9 = getelementptr inbounds nuw i8, ptr %0, i64 900
  tail call void @llvm.memcpy.p0.p0.i64(ptr noundef nonnull align 4 dereferenceable(20) %9, ptr noundef nonnull align 1 dereferenceable(20) %2, i64 20, i1 false)
  br label %16

10:                                               ; preds = %3
  %11 = getelementptr inbounds nuw i8, ptr %0, i64 920
  tail call void @llvm.memcpy.p0.p0.i64(ptr noundef nonnull align 8 dereferenceable(32) %11, ptr noundef nonnull align 1 dereferenceable(32) %2, i64 32, i1 false)
  br label %16

12:                                               ; preds = %3
  %13 = getelementptr inbounds nuw i8, ptr %0, i64 952
  tail call void @llvm.memcpy.p0.p0.i64(ptr noundef nonnull align 8 dereferenceable(48) %13, ptr noundef nonnull align 1 dereferenceable(48) %2, i64 48, i1 false)
  br label %16

14:                                               ; preds = %3
  %15 = getelementptr inbounds nuw i8, ptr %0, i64 1000
  tail call void @llvm.memcpy.p0.p0.i64(ptr noundef nonnull align 8 dereferenceable(64) %15, ptr noundef nonnull align 1 dereferenceable(64) %2, i64 64, i1 false)
  br label %16

16:                                               ; preds = %4, %6, %8, %10, %12, %14, %3
  %.0 = phi i32 [ -20, %3 ], [ 0, %14 ], [ 0, %12 ], [ 0, %10 ], [ 0, %8 ], [ 0, %6 ], [ 0, %4 ]
  ret i32 %.0
}